Certificate:
    Data:
        Version: 3 (0x2)
        Serial Number: 1 (0x1)
    Signature Algorithm: sha256WithRSAEncryption
        Issuer: O=PHYTEC Messtechnik GmbH, CN=PHYTEC Messtechnik GmbH PHYTEC BSP CA Development
        Validity
            Not Before: Jan  1 00:00:00 1970 GMT
            Not After : Dec 31 23:59:59 9999 GMT
        Subject: O=PHYTEC Messtechnik GmbH, CN=PHYTEC Messtechnik GmbH PHYTEC BSP CA Development
        Subject Public Key Info:
            Public Key Algorithm: rsaEncryption
                Public-Key: (2048 bit)
                Modulus:
                    00:c2:9a:4f:7a:53:53:ce:e2:fe:9a:33:39:a3:43:
                    8e:27:06:7a:c9:ea:52:9b:5c:cd:a2:de:55:02:38:
                    77:b5:bd:45:81:69:50:91:ca:78:c1:85:7e:87:3e:
                    17:55:f8:20:ed:98:a6:34:61:8c:28:3f:b5:c7:eb:
                    97:48:39:0e:d1:46:b6:cf:bd:b3:64:79:b9:89:f7:
                    88:5b:2d:7e:6c:4b:c0:38:85:5c:18:d5:89:b0:56:
                    a9:8b:86:ca:a5:03:15:73:81:b8:2d:b1:65:24:60:
                    ab:b1:fb:95:78:48:cb:d4:5f:d8:3f:47:5e:46:6e:
                    10:28:93:2e:9a:b6:09:93:8f:6d:6d:58:b0:36:b4:
                    77:e4:4e:5c:53:8f:72:e5:1e:b5:58:a6:fd:83:5c:
                    c5:ba:27:40:b9:c4:41:80:6f:3a:47:aa:55:d5:53:
                    92:11:26:40:00:64:43:42:31:0f:7d:bd:bd:07:e0:
                    fd:20:f2:4b:8c:37:44:b8:78:f6:58:0e:c1:c4:51:
                    d7:25:c7:55:e1:1c:a9:0d:79:57:70:93:87:a9:4a:
                    01:87:c8:c5:0a:d8:9c:89:0f:eb:40:00:63:0c:9a:
                    67:a0:9b:83:90:8e:75:29:21:29:9e:08:22:96:8c:
                    27:fb:6b:0a:e9:fb:f9:dc:c1:1a:80:90:1b:f6:e1:
                    2e:93
                Exponent: 65537 (0x10001)
        X509v3 extensions:
            X509v3 Subject Key Identifier: 
                FE:76:4D:95:F7:72:69:3B:01:BC:1C:32:96:BE:58:45:5F:A4:B4:E6
            X509v3 Authority Key Identifier: 
                keyid:FE:76:4D:95:F7:72:69:3B:01:BC:1C:32:96:BE:58:45:5F:A4:B4:E6
                DirName:/O=PHYTEC Messtechnik GmbH/CN=PHYTEC Messtechnik GmbH PHYTEC BSP CA Development
                serial:01

            X509v3 Basic Constraints: 
                CA:TRUE
    Signature Algorithm: sha256WithRSAEncryption
         6b:8f:e9:79:9a:49:9d:e4:e5:49:52:18:39:7a:2a:9f:6a:09:
         9a:6b:06:c5:e4:e6:c4:13:ad:d7:82:cf:38:26:0c:40:03:64:
         1c:b3:45:41:36:59:77:6e:e7:03:93:03:1b:d6:99:bf:ca:90:
         a5:85:6c:af:66:16:cb:63:6e:af:28:32:9c:99:02:23:7e:30:
         b6:91:5f:9f:9f:e3:e4:95:2e:f8:2c:b4:1b:5a:b0:5a:a2:05:
         ce:81:cd:b0:5a:a7:95:0b:9d:1c:97:ec:55:4d:73:91:01:23:
         06:10:fd:03:4c:aa:59:d2:4b:a9:0c:88:57:ec:ca:c0:58:dd:
         2c:f4:e2:19:65:fa:24:90:ad:93:55:44:34:90:1a:c3:70:35:
         fd:9d:97:94:a1:77:ca:2e:d8:d2:c0:4c:7a:8f:64:db:55:4d:
         e5:c2:7f:3e:dc:4d:29:92:2b:3e:06:87:25:72:e8:dc:db:0f:
         36:c9:e8:d0:53:b1:b4:be:e6:79:0b:38:3a:19:c0:67:86:5f:
         e5:89:d1:8f:c4:b1:ff:ed:89:aa:15:3a:00:29:71:72:23:59:
         5d:94:da:90:76:26:30:65:a0:56:c9:e8:e1:b6:ae:0f:87:44:
         8a:56:d5:33:32:70:2c:45:06:cd:fc:39:a1:7b:02:2f:91:40:
         85:52:3b:69
-----BEGIN CERTIFICATE-----
MIID9TCCAt2gAwIBAgIBATANBgkqhkiG9w0BAQsFADBeMSAwHgYDVQQKDBdQSFlU
RUMgTWVzc3RlY2huaWsgR21iSDE6MDgGA1UEAwwxUEhZVEVDIE1lc3N0ZWNobmlr
IEdtYkggUEhZVEVDIEJTUCBDQSBEZXZlbG9wbWVudDAiGA8xOTcwMDEwMTAwMDAw
MFoYDzk5OTkxMjMxMjM1OTU5WjBeMSAwHgYDVQQKDBdQSFlURUMgTWVzc3RlY2hu
aWsgR21iSDE6MDgGA1UEAwwxUEhZVEVDIE1lc3N0ZWNobmlrIEdtYkggUEhZVEVD
IEJTUCBDQSBEZXZlbG9wbWVudDCCASIwDQYJKoZIhvcNAQEBBQADggEPADCCAQoC
ggEBAMKaT3pTU87i/pozOaNDjicGesnqUptczaLeVQI4d7W9RYFpUJHKeMGFfoc+
F1X4IO2YpjRhjCg/tcfrl0g5DtFGts+9s2R5uYn3iFstfmxLwDiFXBjVibBWqYuG
yqUDFXOBuC2xZSRgq7H7lXhIy9Rf2D9HXkZuECiTLpq2CZOPbW1YsDa0d+ROXFOP
cuUetVim/YNcxbonQLnEQYBvOkeqVdVTkhEmQABkQ0IxD329vQfg/SDyS4w3RLh4
9lgOwcRR1yXHVeEcqQ15V3CTh6lKAYfIxQrYnIkP60AAYwyaZ6Cbg5COdSkhKZ4I
IpaMJ/trCun7+dzBGoCQG/bhLpMCAwEAAaOBuTCBtjAdBgNVHQ4EFgQU/nZNlfdy
aTsBvBwylr5YRV+ktOYwgYYGA1UdIwR/MH2AFP52TZX3cmk7AbwcMpa+WEVfpLTm
oWKkYDBeMSAwHgYDVQQKDBdQSFlURUMgTWVzc3RlY2huaWsgR21iSDE6MDgGA1UE
AwwxUEhZVEVDIE1lc3N0ZWNobmlrIEdtYkggUEhZVEVDIEJTUCBDQSBEZXZlbG9w
bWVudIIBATAMBgNVHRMEBTADAQH/MA0GCSqGSIb3DQEBCwUAA4IBAQBrj+l5mkmd
5OVJUhg5eiqfagmaawbF5ObEE63Xgs84JgxAA2Qcs0VBNll3bucDkwMb1pm/ypCl
hWyvZhbLY26vKDKcmQIjfjC2kV+fn+PklS74LLQbWrBaogXOgc2wWqeVC50cl+xV
TXORASMGEP0DTKpZ0kupDIhX7MrAWN0s9OIZZfokkK2TVUQ0kBrDcDX9nZeUoXfK
LtjSwEx6j2TbVU3lwn8+3E0pkis+Boclcujc2w82yejQU7G0vuZ5Czg6GcBnhl/l
idGPxLH/7YmqFToAKXFyI1ldlNqQdiYwZaBWyejhtq4Ph0SKVtUzMnAsRQbN/Dmh
ewIvkUCFUjtp
-----END CERTIFICATE-----
