Certificate:
    Data:
        Version: 3 (0x2)
        Serial Number: 2 (0x2)
    Signature Algorithm: sha256WithRSAEncryption
        Issuer: O=PHYTEC Messtechnik GmbH, CN=PHYTEC Messtechnik GmbH PHYTEC BSP CA Development
        Validity
            Not Before: Jan  1 00:00:00 1970 GMT
            Not After : Dec 31 23:59:59 9999 GMT
        Subject: O=PHYTEC Messtechnik GmbH, CN=PHYTEC Messtechnik GmbH Development-1
        Subject Public Key Info:
            Public Key Algorithm: rsaEncryption
                Public-Key: (2048 bit)
                Modulus:
                    00:ae:b5:dc:b8:d2:16:81:3d:15:26:b4:cb:63:5a:
                    aa:15:d0:ca:9f:aa:9b:a0:46:1c:7b:11:70:cc:22:
                    7e:a9:90:18:61:cd:8d:aa:56:15:a3:a9:6f:32:51:
                    06:ab:3f:94:41:07:0e:0f:85:ae:4c:f8:27:0d:c2:
                    85:9e:15:51:a2:e2:ef:fd:54:0e:28:4b:ed:77:62:
                    cd:62:b1:d3:f2:d3:64:c5:86:13:c0:26:3b:21:1c:
                    f8:7a:0e:62:98:a3:61:ae:c4:de:3d:ce:87:6c:43:
                    4d:a8:c2:1b:b3:27:eb:09:d1:29:5e:e2:a5:49:62:
                    7a:9d:a3:e7:74:ea:b4:82:ce:f9:1c:67:76:10:07:
                    bc:73:7c:f5:a9:ff:e3:76:76:9e:97:a9:d0:52:b8:
                    f6:3b:b1:18:e1:56:dc:a3:74:b7:12:f7:be:20:bd:
                    da:0b:dc:90:6f:a2:01:5a:de:8c:5d:c4:64:67:fe:
                    18:a8:be:b3:8b:4d:48:c6:8b:f2:2b:c7:67:9d:22:
                    2e:33:a9:f2:c7:f1:cc:4d:cc:45:c1:1f:64:42:b5:
                    cd:fd:7d:78:3d:dd:36:d2:3f:11:95:a5:1a:cf:89:
                    0e:07:b2:80:37:ff:24:7e:db:de:70:b6:9f:37:68:
                    1c:3b:2d:c7:0c:84:15:35:79:8d:aa:0d:e8:8b:0f:
                    ed:6b
                Exponent: 65537 (0x10001)
        X509v3 extensions:
            X509v3 Subject Key Identifier: 
                5A:E0:1F:A1:17:D3:C4:E0:FE:C8:8C:9D:03:9F:60:FA:F1:15:F6:3E
            X509v3 Authority Key Identifier: 
                keyid:FE:76:4D:95:F7:72:69:3B:01:BC:1C:32:96:BE:58:45:5F:A4:B4:E6
                DirName:/O=PHYTEC Messtechnik GmbH/CN=PHYTEC Messtechnik GmbH PHYTEC BSP CA Development
                serial:01

            X509v3 Basic Constraints: 
                CA:FALSE
    Signature Algorithm: sha256WithRSAEncryption
         7d:21:79:73:91:3a:bd:e6:db:74:e0:e4:30:38:ed:0a:65:49:
         46:71:f9:6f:08:a7:ad:1d:26:1a:ab:b2:ff:88:6e:ca:ac:fb:
         28:1b:a3:ab:ae:93:0a:ec:00:27:08:9c:3f:16:dc:af:55:4a:
         74:e2:cc:66:ef:7d:85:df:d2:eb:c6:2b:37:ec:72:86:41:9c:
         5f:51:e0:bb:94:a4:77:85:2a:a3:5b:50:57:e5:7e:70:53:ab:
         c8:6c:b1:c7:a8:41:c7:99:70:8f:e3:82:90:00:52:34:c1:b5:
         68:fb:c0:eb:cf:4d:49:23:e7:21:ac:a0:46:6b:cc:2c:e7:8d:
         af:a7:28:74:2b:c5:52:4e:68:d4:ea:bb:4c:62:c5:db:87:91:
         03:5e:c0:08:17:43:c0:8a:45:f3:58:ae:a6:d0:43:9f:44:7c:
         bb:b5:4e:cb:9d:2c:f0:00:64:5e:24:cf:1a:01:84:50:e7:c5:
         d5:73:65:2e:70:52:5c:7b:fc:c8:25:0f:3c:03:dc:d8:20:39:
         ba:71:41:e6:43:11:90:be:ec:79:60:f4:0c:ca:b9:2f:2c:72:
         5e:9c:43:88:1b:a5:04:c4:2c:6d:dd:4b:bb:c6:6a:62:33:ba:
         9c:6f:1e:c3:63:59:2f:57:ea:4f:a8:1c:35:b7:f9:e6:be:e7:
         ac:ac:1b:c3
-----BEGIN CERTIFICATE-----
MIID5jCCAs6gAwIBAgIBAjANBgkqhkiG9w0BAQsFADBeMSAwHgYDVQQKDBdQSFlU
RUMgTWVzc3RlY2huaWsgR21iSDE6MDgGA1UEAwwxUEhZVEVDIE1lc3N0ZWNobmlr
IEdtYkggUEhZVEVDIEJTUCBDQSBEZXZlbG9wbWVudDAiGA8xOTcwMDEwMTAwMDAw
MFoYDzk5OTkxMjMxMjM1OTU5WjBSMSAwHgYDVQQKDBdQSFlURUMgTWVzc3RlY2hu
aWsgR21iSDEuMCwGA1UEAwwlUEhZVEVDIE1lc3N0ZWNobmlrIEdtYkggRGV2ZWxv
cG1lbnQtMTCCASIwDQYJKoZIhvcNAQEBBQADggEPADCCAQoCggEBAK613LjSFoE9
FSa0y2NaqhXQyp+qm6BGHHsRcMwifqmQGGHNjapWFaOpbzJRBqs/lEEHDg+Frkz4
Jw3ChZ4VUaLi7/1UDihL7XdizWKx0/LTZMWGE8AmOyEc+HoOYpijYa7E3j3Oh2xD
TajCG7Mn6wnRKV7ipUliep2j53TqtILO+RxndhAHvHN89an/43Z2npep0FK49jux
GOFW3KN0txL3viC92gvckG+iAVrejF3EZGf+GKi+s4tNSMaL8ivHZ50iLjOp8sfx
zE3MRcEfZEK1zf19eD3dNtI/EZWlGs+JDgeygDf/JH7b3nC2nzdoHDstxwyEFTV5
jaoN6IsP7WsCAwEAAaOBtjCBszAdBgNVHQ4EFgQUWuAfoRfTxOD+yIydA59g+vEV
9j4wgYYGA1UdIwR/MH2AFP52TZX3cmk7AbwcMpa+WEVfpLTmoWKkYDBeMSAwHgYD
VQQKDBdQSFlURUMgTWVzc3RlY2huaWsgR21iSDE6MDgGA1UEAwwxUEhZVEVDIE1l
c3N0ZWNobmlrIEdtYkggUEhZVEVDIEJTUCBDQSBEZXZlbG9wbWVudIIBATAJBgNV
HRMEAjAAMA0GCSqGSIb3DQEBCwUAA4IBAQB9IXlzkTq95tt04OQwOO0KZUlGcflv
CKetHSYaq7L/iG7KrPsoG6OrrpMK7AAnCJw/FtyvVUp04sxm732F39Lrxis37HKG
QZxfUeC7lKR3hSqjW1BX5X5wU6vIbLHHqEHHmXCP44KQAFI0wbVo+8Drz01JI+ch
rKBGa8ws542vpyh0K8VSTmjU6rtMYsXbh5EDXsAIF0PAikXzWK6m0EOfRHy7tU7L
nSzwAGReJM8aAYRQ58XVc2UucFJce/zIJQ88A9zYIDm6cUHmQxGQvux5YPQMyrkv
LHJenEOIG6UExCxt3Uu7xmpiM7qcbx7DY1kvV+pPqBw1t/nmvuesrBvD
-----END CERTIFICATE-----
